(dp0
Vwifi
p1
(lp2
VWiFi
p3
asVscreen
p4
(lp5
Vsurface
p6
aVCRT%20screen
p7
asVpairing
p8
(lp9
Vunion
p10
asVwireless
p11
(lp12
Vradiocommunication
p13
asVcamera
p14
(lp15
Vphotographic%20camera
p16
asVinternet
p17
(lp18
Vnet
p19
asVtouch
p20
(lp21
Vcontact
p22
asVdisplay
p23
(lp24
Vvideo%20display
p25
as.