(dp0
Vpairing
p1
(lp2
VNFC
p3
aVBluetooth
p4
aVUSB
p5
asVwifi
p6
(lp7
V802.11g
p8
aV802.11
p9
aV802.11b
p10
asVwireless
p11
(lp12
V4G
p13
aVLTE
p14
aV4G%20HSPA+%20network
p15
aV3G
p16
asVcamera
p17
(lp18
Vmegapixel%20camera%20phones
p19
asVinternet
p20
(lp21
V4G
p22
aVLTE
p23
aV4G%20HSPA+%20network
p24
aV3G
p25
asVdisplay
p26
(lp27
VSuper%20AMOLED
p28
aVHD%20LCD%20display
p29
aVRetina%20display
p30
as.