(dp0
Vpairing
p1
(lp2
VNFC
p3
aVBluetooth
p4
aVUSB
p5
asVscreen
p6
(lp7
VGorilla%20Glass
p8
asVwifi
p9
(lp10
V802.11g
p11
aV802.11
p12
aV802.11b
p13
asVwireless
p14
(lp15
V4G
p16
aVLTE
p17
aV4G%20HSPA+%20network
p18
aV3G
p19
asVcamera
p20
(lp21
Vmegapixel%20camera%20phones
p22
asVinternet
p23
(lp24
V4G
p25
aVLTE
p26
aV4G%20HSPA+%20network
p27
aV3G
p28
asVtouch
p29
(lp30
Vcapacitive%20touch
p31
aVtouchscreen
p32
asVdisplay
p33
(lp34
VSuper%20AMOLED
p35
aVHD%20LCD%20display
p36
aVRetina%20display
p37
as.