(dp0
Vcamera
p1
(lp2
Vhigh%20megapixel%20count
p3
aVCarl%20Zeiss%20lenses
p4
aVtrue%20HD%20video
p5
asVdisplay
p6
(lp7
VGorilla%20Glass
p8
aVSuper%20AMOLED%20Plus
p9
aVretina%20display
p10
aVSuper%20LCD
p11
as.